target datalayout = "e-m:e-p270:32:32-p271:32:32-p272:64:64-i64:64-i128:128-f80:128-n8:16:32:64-S128"
target triple = "x86_64-unknown-linux-gnu"

%class.rational = type { %class.mpq }
%class.mpq = type { %class.mpz, %class.mpz }
%class.mpz = type { i32, i8, ptr }
%"struct.std::_Setprecision" = type { i32 }
%class.vector = type { ptr }

@.str = private unnamed_addr constant [2 x i8] c" \00", align 1
@_ZN8rational13g_mpq_managerE = external global ptr, align 8

; Function Attrs: mustprogress nounwind uwtable
define linkonce_odr hidden noundef nonnull align 8 dereferenceable(728) ptr @_ZN8rational1mEv() #5 comdat align 2 {
entry:
  %0 = load ptr, ptr @_ZN8rational13g_mpq_managerE, align 8
  ret ptr %0
}

; Function Attrs: mustprogress nounwind uwtable
define linkonce_odr i32 @_ZSt12setprecisioni(i32 noundef %__n) #5 comdat {
entry:
  %retval = alloca %"struct.std::_Setprecision", align 4
  %__n.addr = alloca i32, align 4
  store i32 %__n, ptr %__n.addr, align 4
  %_M_n = getelementptr inbounds %"struct.std::_Setprecision", ptr %retval, i32 0, i32 0
  %0 = load i32, ptr %__n.addr, align 4
  store i32 %0, ptr %_M_n, align 4
  %coerce.dive = getelementptr inbounds %"struct.std::_Setprecision", ptr %retval, i32 0, i32 0
  %1 = load i32, ptr %coerce.dive, align 4
  ret i32 %1
}

; Function Attrs: mustprogress uwtable
define linkonce_odr hidden noundef double @_ZNK8rational10get_doubleEv(ptr noundef nonnull align 8 dereferenceable(32) %this) #4 comdat align 2 {
entry:
  %this.addr = alloca ptr, align 8
  store ptr %this, ptr %this.addr, align 8
  %this1 = load ptr, ptr %this.addr, align 8
  %call = call noundef nonnull align 8 dereferenceable(728) ptr @_ZN8rational1mEv()
  %m_val = getelementptr inbounds %class.rational, ptr %this1, i32 0, i32 0
  %call2 = call noundef double @_ZNK11mpq_managerILb1EE10get_doubleERK3mpq(ptr noundef nonnull align 8 dereferenceable(728) %call, ptr noundef nonnull align 8 dereferenceable(32) %m_val)
  ret double %call2
}

; Function Attrs: mustprogress nounwind uwtable
define linkonce_odr hidden noundef nonnull align 8 dereferenceable(32) ptr @_ZNK6vectorI8rationalLb1EjEixEj(ptr noundef nonnull align 8 dereferenceable(8) %this, i32 noundef %idx) #5 comdat align 2 {
entry:
  %this.addr = alloca ptr, align 8
  %idx.addr = alloca i32, align 4
  store ptr %this, ptr %this.addr, align 8
  store i32 %idx, ptr %idx.addr, align 4
  %this1 = load ptr, ptr %this.addr, align 8
  %m_data = getelementptr inbounds %class.vector, ptr %this1, i32 0, i32 0
  %0 = load ptr, ptr %m_data, align 8
  %1 = load i32, ptr %idx.addr, align 4
  %idxprom = zext i32 %1 to i64
  %arrayidx = getelementptr inbounds %class.rational, ptr %0, i64 %idxprom
  ret ptr %arrayidx
}

; Function Attrs: mustprogress nounwind uwtable
define linkonce_odr hidden noundef i32 @_ZNK6vectorI8rationalLb1EjE4sizeEv(ptr noundef nonnull align 8 dereferenceable(8) %this) #5 comdat align 2 {
entry:
  %retval = alloca i32, align 4
  %this.addr = alloca ptr, align 8
  store ptr %this, ptr %this.addr, align 8
  %this1 = load ptr, ptr %this.addr, align 8
  %m_data = getelementptr inbounds %class.vector, ptr %this1, i32 0, i32 0
  %0 = load ptr, ptr %m_data, align 8
  %cmp = icmp eq ptr %0, null
  br i1 %cmp, label %if.then, label %if.end

if.then:                                          ; preds = %entry
  store i32 0, ptr %retval, align 4
  br label %return

if.end:                                           ; preds = %entry
  %m_data2 = getelementptr inbounds %class.vector, ptr %this1, i32 0, i32 0
  %1 = load ptr, ptr %m_data2, align 8
  %arrayidx = getelementptr inbounds i32, ptr %1, i64 -1
  %2 = load i32, ptr %arrayidx, align 4
  store i32 %2, ptr %retval, align 4
  br label %return

return:                                           ; preds = %if.end, %if.then
  %3 = load i32, ptr %retval, align 4
  ret i32 %3
}

; Function Attrs: mustprogress uwtable
define hidden void @_ZN2lp23print_vector_as_doublesERK6vectorI8rationalLb1EjERSo(ptr noundef nonnull align 8 dereferenceable(8) %t, ptr noundef nonnull align 8 dereferenceable(8) %out) #4 {
entry:
  %t.addr = alloca ptr, align 8
  %out.addr = alloca ptr, align 8
  %i = alloca i32, align 4
  %agg.tmp = alloca %"struct.std::_Setprecision", align 4
  store ptr %t, ptr %t.addr, align 8
  store ptr %out, ptr %out.addr, align 8
  store i32 0, ptr %i, align 4
  br label %for.cond

for.cond:                                         ; preds = %for.inc, %entry
  %0 = load i32, ptr %i, align 4
  %1 = load ptr, ptr %t.addr, align 8
  %call = call noundef i32 @_ZNK6vectorI8rationalLb1EjE4sizeEv(ptr noundef nonnull align 8 dereferenceable(8) %1)
  %cmp = icmp ult i32 %0, %call
  br i1 %cmp, label %for.body, label %for.end

for.body:                                         ; preds = %for.cond
  %2 = load ptr, ptr %out.addr, align 8
  %3 = load ptr, ptr %t.addr, align 8
  %4 = load i32, ptr %i, align 4
  %call1 = call noundef nonnull align 8 dereferenceable(32) ptr @_ZNK6vectorI8rationalLb1EjEixEj(ptr noundef nonnull align 8 dereferenceable(8) %3, i32 noundef %4)
  %call2 = call noundef double @_ZNK8rational10get_doubleEv(ptr noundef nonnull align 8 dereferenceable(32) %call1)
  %call3 = call noundef nonnull align 8 dereferenceable(8) ptr @_ZNSolsEd(ptr noundef nonnull align 8 dereferenceable(8) %2, double noundef %call2)
  %call4 = call i32 @_ZSt12setprecisioni(i32 noundef 3)
  %coerce.dive = getelementptr inbounds %"struct.std::_Setprecision", ptr %agg.tmp, i32 0, i32 0
  store i32 %call4, ptr %coerce.dive, align 4
  %coerce.dive5 = getelementptr inbounds %"struct.std::_Setprecision", ptr %agg.tmp, i32 0, i32 0
  %5 = load i32, ptr %coerce.dive5, align 4
  %call6 = call noundef nonnull align 8 dereferenceable(8) ptr @_ZStlsIcSt11char_traitsIcEERSt13basic_ostreamIT_T0_ES6_St13_Setprecision(ptr noundef nonnull align 8 dereferenceable(8) %call3, i32 %5)
  %call7 = call noundef nonnull align 8 dereferenceable(8) ptr @_ZStlsISt11char_traitsIcEERSt13basic_ostreamIcT_ES5_PKc(ptr noundef nonnull align 8 dereferenceable(8) %call6, ptr noundef @.str)
  br label %for.inc

for.inc:                                          ; preds = %for.body
  %6 = load i32, ptr %i, align 4
  %inc = add i32 %6, 1
  store i32 %inc, ptr %i, align 4
  br label %for.cond, !llvm.loop !4

for.end:                                          ; preds = %for.cond
  %7 = load ptr, ptr %out.addr, align 8
  %call8 = call noundef nonnull align 8 dereferenceable(8) ptr @_ZNSolsEPFRSoS_E(ptr noundef nonnull align 8 dereferenceable(8) %7, ptr noundef @_ZSt4endlIcSt11char_traitsIcEERSt13basic_ostreamIT_T0_ES6_)
  ret void
}