; Function Attrs: mustprogress uwtable
define hidden void @_ZN2lp23print_vector_as_doublesERK6vectorI8rationalLb1EjERSo(ptr nocapture noundef nonnull readonly align 8 dereferenceable(8) %t, ptr noundef nonnull align 8 dereferenceable(8) %out) local_unnamed_addr #3 {
entry:
  br label %for.cond

for.cond:                                         ; preds = %for.body, %entry
  %indvars.iv = phi i64 [ %indvars.iv.next, %for.body ], [ 0, %entry ]
  %0 = load ptr, ptr %t, align 8
  %cmp.i = icmp eq ptr %0, null
  br i1 %cmp.i, label %_ZNK6vectorI8rationalLb1EjE4sizeEv.exit, label %if.end.i

if.end.i:                                         ; preds = %for.cond
  %arrayidx.i = getelementptr inbounds i8, ptr %0, i64 -4
  %1 = load i32, ptr %arrayidx.i, align 4
  br label %_ZNK6vectorI8rationalLb1EjE4sizeEv.exit

_ZNK6vectorI8rationalLb1EjE4sizeEv.exit:          ; preds = %for.cond, %if.end.i
  %retval.0.i = phi i32 [ %1, %if.end.i ], [ 0, %for.cond ]
  %2 = zext i32 %retval.0.i to i64
  %cmp = icmp ult i64 %indvars.iv, %2
  br i1 %cmp, label %for.body, label %for.end

for.body:                                         ; preds = %_ZNK6vectorI8rationalLb1EjE4sizeEv.exit
  %arrayidx.i5 = getelementptr inbounds %class.rational, ptr %0, i64 %indvars.iv
  %3 = load ptr, ptr @_ZN8rational13g_mpq_managerE, align 8
  %call2.i = tail call noundef double @_ZNK11mpq_managerILb1EE10get_doubleERK3mpq(ptr noundef nonnull align 8 dereferenceable(728) %3, ptr noundef nonnull align 8 dereferenceable(32) %arrayidx.i5)
  %call3 = tail call noundef nonnull align 8 dereferenceable(8) ptr @_ZNSolsEd(ptr noundef nonnull align 8 dereferenceable(8) %out, double noundef %call2.i)
  %call6 = tail call noundef nonnull align 8 dereferenceable(8) ptr @_ZStlsIcSt11char_traitsIcEERSt13basic_ostreamIT_T0_ES6_St13_Setprecision(ptr noundef nonnull align 8 dereferenceable(8) %call3, i32 3)
  %call7 = tail call noundef nonnull align 8 dereferenceable(8) ptr @_ZStlsISt11char_traitsIcEERSt13basic_ostreamIcT_ES5_PKc(ptr noundef nonnull align 8 dereferenceable(8) %call6, ptr noundef nonnull @.str)
  %indvars.iv.next = add nuw nsw i64 %indvars.iv, 1
  br label %for.cond, !llvm.loop !4

for.end:                                          ; preds = %_ZNK6vectorI8rationalLb1EjE4sizeEv.exit
  %call8 = tail call noundef nonnull align 8 dereferenceable(8) ptr @_ZNSolsEPFRSoS_E(ptr noundef nonnull align 8 dereferenceable(8) %out, ptr noundef nonnull @_ZSt4endlIcSt11char_traitsIcEERSt13basic_ostreamIT_T0_ES6_)
  ret void
}